(dp1
S'session'
p2
(dp3
S'family_name'
p4
Vcoryplecolover
p5
sS'name'
p6
Vryan coryplecolover
p7
sS'picture'
p8
Vhttps://lh3.googleusercontent.com/-XdUIqdMkCWA/AAAAAAAAAAI/AAAAAAAAAAA/4252rscbv5M/photo.jpg
p9
sS'gender'
p10
Vmale
p11
sS'signed'
p12
S'wl3Ppth1I9U_Gj_N1xiaOoLX'
p13
sS'_accessed_time'
p14
F1414537178.7179041
sS'email'
p15
Vcoryplecolover@gmail.com
p16
sS'_creation_time'
p17
F1414536943.7966001
ss.