(dp1
S'session'
p2
(dp3
S'family_name'
p4
Vchoi
p5
sS'name'
p6
VEric choi
p7
sS'picture'
p8
Vhttps://lh3.googleusercontent.com/-XdUIqdMkCWA/AAAAAAAAAAI/AAAAAAAAAAA/4252rscbv5M/photo.jpg
p9
sS'gender'
p10
Vmale
p11
sS'signed'
p12
S'wl3Ppth1I9U_Gj_N1xiaOoLX'
p13
sS'_accessed_time'
p14
F1414049920.2966571
sS'email'
p15
Vikchoi0@gmail.com
p16
sS'_creation_time'
p17
F1414047505.439456
ss.